target datalayout = "e-m:e-p270:32:32-p271:32:32-p272:64:64-i64:64-i128:128-f80:128-n8:16:32:64-S128"
target triple = "x86_64-pc-linux-gnu"

@stderr = external global ptr, align 8
@.str.1672 = private unnamed_addr constant [17 x i8] c"Error: (%d): %s\0A\00", align 1
@.str.1673 = private unnamed_addr constant [31 x i8] c"could not verify the cert: %s\0A\00", align 1
@.str.1674 = private unnamed_addr constant [27 x i8] c"successfully verified: %s\0A\00", align 1

; Function Attrs: nounwind uwtable
define internal i32 @verify_cert_with_cm(ptr noundef %0, ptr noundef %1) #0 {
  %3 = alloca i32, align 4
  %4 = alloca ptr, align 8
  %5 = alloca ptr, align 8
  %6 = alloca i32, align 4
  %7 = alloca i32, align 4
  store ptr %0, ptr %4, align 8, !tbaa !158
  store ptr %1, ptr %5, align 8, !tbaa !32
  call void @llvm.lifetime.start.p0(i64 4, ptr %6) #14
  %8 = load ptr, ptr %4, align 8, !tbaa !158
  %9 = load ptr, ptr %5, align 8, !tbaa !32
  %10 = call i32 @wolfSSL_CertManagerVerify(ptr noundef %8, ptr noundef %9, i32 noundef 1)
  store i32 %10, ptr %6, align 4, !tbaa !10
  %11 = icmp ne i32 %10, 1
  br i1 %11, label %12, label %22

12:                                               ; preds = %2
  %13 = load ptr, ptr @stderr, align 8, !tbaa !22
  %14 = load ptr, ptr %5, align 8, !tbaa !32
  %15 = call i32 (ptr, ptr, ...) @fprintf(ptr noundef %13, ptr noundef @.str.1673, ptr noundef %14) #14
  %16 = load ptr, ptr @stderr, align 8, !tbaa !22
  %17 = load i32, ptr %6, align 4, !tbaa !10
  %18 = load i32, ptr %6, align 4, !tbaa !10
  %19 = zext i32 %18 to i64
  %20 = call ptr @wolfSSL_ERR_reason_error_string(i64 noundef %19)
  %21 = call i32 (ptr, ptr, ...) @fprintf(ptr noundef %16, ptr noundef @.str.1672, i32 noundef %17, ptr noundef %20) #14
  store i32 -1, ptr %3, align 4
  store i32 1, ptr %7, align 4
  br label %27

22:                                               ; preds = %2
  %23 = load ptr, ptr @stderr, align 8, !tbaa !22
  %24 = load ptr, ptr %5, align 8, !tbaa !32
  %25 = call i32 (ptr, ptr, ...) @fprintf(ptr noundef %23, ptr noundef @.str.1674, ptr noundef %24) #14
  br label %26

26:                                               ; preds = %22
  store i32 0, ptr %3, align 4
  store i32 1, ptr %7, align 4
  br label %27

27:                                               ; preds = %26, %12
  call void @llvm.lifetime.end.p0(i64 4, ptr %6) #14
  %28 = load i32, ptr %3, align 4
  ret i32 %28
}