; Function Attrs: cold nounwind uwtable
define internal fastcc range(i32 -1, 1) i32 @verify_cert_with_cm(ptr noundef %0, ptr noundef nonnull %1) unnamed_addr #9 {
  %3 = tail call i32 @wolfSSL_CertManagerVerify(ptr noundef %0, ptr noundef nonnull %1, i32 noundef 1) #27
  %.not = icmp eq i32 %3, 1
  %4 = load ptr, ptr @stderr, align 8, !tbaa !22
  br i1 %.not, label %11, label %5

5:                                                ; preds = %2
  %6 = tail call i32 (ptr, ptr, ...) @fprintf(ptr noundef %4, ptr noundef nonnull @.str.1673, ptr noundef nonnull %1) #28
  %7 = load ptr, ptr @stderr, align 8, !tbaa !22
  %8 = zext i32 %3 to i64
  %9 = tail call ptr @wolfSSL_ERR_reason_error_string(i64 noundef %8) #27
  %10 = tail call i32 (ptr, ptr, ...) @fprintf(ptr noundef %7, ptr noundef nonnull @.str.1672, i32 noundef %3, ptr noundef %9) #28
  br label %13

11:                                               ; preds = %2
  %12 = tail call i32 (ptr, ptr, ...) @fprintf(ptr noundef %4, ptr noundef nonnull @.str.1674, ptr noundef nonnull %1) #28
  br label %13

13:                                               ; preds = %11, %5
  %.0 = phi i32 [ -1, %5 ], [ 0, %11 ]
  ret i32 %.0
}